target datalayout = "e-m:e-p270:32:32-p271:32:32-p272:64:64-i64:64-i128:128-f80:128-n8:16:32:64-S128"
target triple = "x86_64-pc-linux-gnu"

; Function Attrs: nounwind uwtable
define internal void @vector_fmul_reverse_c(ptr noundef %0, ptr noundef %1, ptr noundef %2, i32 noundef %3) #0 {
  %5 = alloca ptr, align 8
  %6 = alloca ptr, align 8
  %7 = alloca ptr, align 8
  %8 = alloca i32, align 4
  %9 = alloca i32, align 4
  store ptr %0, ptr %5, align 8, !tbaa !32
  store ptr %1, ptr %6, align 8, !tbaa !32
  store ptr %2, ptr %7, align 8, !tbaa !32
  store i32 %3, ptr %8, align 4, !tbaa !15
  call void @llvm.lifetime.start.p0(i64 4, ptr %9) #5
  %10 = load i32, ptr %8, align 4, !tbaa !15
  %11 = sub nsw i32 %10, 1
  %12 = load ptr, ptr %7, align 8, !tbaa !32
  %13 = sext i32 %11 to i64
  %14 = getelementptr inbounds float, ptr %12, i64 %13
  store ptr %14, ptr %7, align 8, !tbaa !32
  store i32 0, ptr %9, align 4, !tbaa !15
  br label %15

15:                                               ; preds = %36, %4
  %16 = load i32, ptr %9, align 4, !tbaa !15
  %17 = load i32, ptr %8, align 4, !tbaa !15
  %18 = icmp slt i32 %16, %17
  br i1 %18, label %19, label %39

19:                                               ; preds = %15
  %20 = load ptr, ptr %6, align 8, !tbaa !32
  %21 = load i32, ptr %9, align 4, !tbaa !15
  %22 = sext i32 %21 to i64
  %23 = getelementptr inbounds float, ptr %20, i64 %22
  %24 = load float, ptr %23, align 4, !tbaa !34
  %25 = load ptr, ptr %7, align 8, !tbaa !32
  %26 = load i32, ptr %9, align 4, !tbaa !15
  %27 = sub nsw i32 0, %26
  %28 = sext i32 %27 to i64
  %29 = getelementptr inbounds float, ptr %25, i64 %28
  %30 = load float, ptr %29, align 4, !tbaa !34
  %31 = fmul nsz float %24, %30
  %32 = load ptr, ptr %5, align 8, !tbaa !32
  %33 = load i32, ptr %9, align 4, !tbaa !15
  %34 = sext i32 %33 to i64
  %35 = getelementptr inbounds float, ptr %32, i64 %34
  store float %31, ptr %35, align 4, !tbaa !34
  br label %36

36:                                               ; preds = %19
  %37 = load i32, ptr %9, align 4, !tbaa !15
  %38 = add nsw i32 %37, 1
  store i32 %38, ptr %9, align 4, !tbaa !15
  br label %15, !llvm.loop !44

39:                                               ; preds = %15
  call void @llvm.lifetime.end.p0(i64 4, ptr %9) #5
  ret void
}