; Function Attrs: nofree norecurse nosync nounwind memory(argmem: readwrite) uwtable
define internal void @vector_fmul_reverse_c(ptr noundef writeonly captures(none) %0, ptr noundef readonly captures(none) %1, ptr noundef readonly captures(none) %2, i32 noundef %3) #4 {
  %5 = sext i32 %3 to i64
  %6 = getelementptr float, ptr %2, i64 %5
  %7 = getelementptr i8, ptr %6, i64 -4
  %8 = icmp sgt i32 %3, 0
  br i1 %8, label %.lr.ph.preheader, label %._crit_edge

.lr.ph.preheader:                                 ; preds = %4
  %wide.trip.count = zext nneg i32 %3 to i64
  br label %.lr.ph

.lr.ph:                                           ; preds = %.lr.ph.preheader, %.lr.ph
  %indvars.iv = phi i64 [ 0, %.lr.ph.preheader ], [ %indvars.iv.next, %.lr.ph ]
  %9 = getelementptr inbounds nuw float, ptr %1, i64 %indvars.iv
  %10 = load float, ptr %9, align 4, !tbaa !24
  %11 = sub nsw i64 0, %indvars.iv
  %12 = getelementptr inbounds float, ptr %7, i64 %11
  %13 = load float, ptr %12, align 4, !tbaa !24
  %14 = fmul nsz float %10, %13
  %15 = getelementptr inbounds nuw float, ptr %0, i64 %indvars.iv
  store float %14, ptr %15, align 4, !tbaa !24
  %indvars.iv.next = add nuw nsw i64 %indvars.iv, 1
  %exitcond.not = icmp eq i64 %indvars.iv.next, %wide.trip.count
  br i1 %exitcond.not, label %._crit_edge, label %.lr.ph, !llvm.loop !34

._crit_edge:                                      ; preds = %.lr.ph, %4
  ret void
}